(dp0
S'METTS MARK'
p1
(dp2
S'to_messages'
p3
F807.0
sS'deferral_payments'
p4
F0.0
sS'expenses'
p5
F94299.0
sS'poi'
p6
I00
sS'long_term_incentive'
p7
F0.0
sS'email_address'
p8
S'mark.metts@enron.com'
p9
sS'from_poi_to_this_person'
p10
F38.0
sS'deferred_income'
p11
F0.0
sS'restricted_stock_deferred'
p12
F0.0
sS'shared_receipt_with_poi'
p13
F702.0
sS'loan_advances'
p14
F0.0
sS'from_messages'
p15
F29.0
sS'other'
p16
F1740.0
sS'p_shared_poi'
p17
F0.8698884758364313
sS'director_fees'
p18
F0.0
sS'p_salary'
p19
F0.34448926237513267
sS'bonus'
p20
F600000.0
sS'total_stock_value'
p21
F585062.0
sS'p_bonus'
p22
F0.5650638004119315
sS'from_this_person_to_poi'
p23
F1.0
sS'restricted_stock'
p24
F585062.0
sS'p_to_poi'
p25
F0.04708798017348203
sS'salary'
p26
F365788.0
sS'total_payments'
p27
F1061827.0
sS'exercised_stock_options'
p28
F0.0
ssS'BAXTER JOHN C'
p29
(dp30
g3
F0.0
sg4
F1295738.0
sg5
F11200.0
sg6
I00
sg7
F1586055.0
sg8
F0.0
sg10
F0.0
sg11
F-1386055.0
sg12
F0.0
sg13
F0.0
sg14
F0.0
sg15
F0.0
sg16
F2660303.0
sg17
F0.0
sg18
F0.0
sg19
F0.047406059588491506
sg20
F1200000.0
sg21
F10623258.0
sg22
F0.21297957898551792
sg23
F0.0
sg24
F3942714.0
sg25
F0.0
sg26
F267102.0
sg27
F5634343.0
sg28
F6680544.0
ssS'ELLIOTT STEVEN'
p31
(dp32
g3
F0.0
sg4
F0.0
sg5
F78552.0
sg6
I00
sg7
F0.0
sg8
S'steven.elliott@enron.com'
p33
sg10
F0.0
sg11
F-400729.0
sg12
F0.0
sg13
F0.0
sg14
F0.0
sg15
F0.0
sg16
F12961.0
sg17
F0.0
sg18
F0.0
sg19
F0.8073727712835046
sg20
F350000.0
sg21
F6678735.0
sg22
F1.6530877317274766
sg23
F0.0
sg24
F1788391.0
sg25
F0.0
sg26
F170941.0
sg27
F211725.0
sg28
F4890344.0
ssS'CORDES WILLIAM R'
p34
(dp35
g3
F764.0
sg4
F0.0
sg5
F0.0
sg6
I00
sg7
F0.0
sg8
S'bill.cordes@enron.com'
p36
sg10
F10.0
sg11
F0.0
sg12
F0.0
sg13
F58.0
sg14
F0.0
sg15
F12.0
sg16
F0.0
sg17
F0.07591623036649214
sg18
F0.0
sg19
F0.0
sg20
F0.0
sg21
F1038185.0
sg22
F0.0
sg23
F0.0
sg24
F386335.0
sg25
F0.013089005235602094
sg26
F0.0
sg27
F0.0
sg28
F651850.0
ssS'HANNON KEVIN P'
p37
(dp38
g3
F1045.0
sg4
F0.0
sg5
F34039.0
sg6
I01
sg7
F1617011.0
sg8
S'kevin.hannon@enron.com'
p39
sg10
F32.0
sg11
F-3117011.0
sg12
F0.0
sg13
F1035.0
sg14
F0.0
sg15
F32.0
sg16
F11350.0
sg17
F0.9904306220095693
sg18
F0.0
sg19
F0.8427716310680957
sg20
F1500000.0
sg21
F6391065.0
sg22
F5.196028848352166
sg23
F21.0
sg24
F853064.0
sg25
F0.03062200956937799
sg26
F243293.0
sg27
F288682.0
sg28
F5538001.0
ssS'MORDAUNT KRISTINA M'
p40
(dp41
g3
F0.0
sg4
F0.0
sg5
F35018.0
sg6
I00
sg7
F0.0
sg8
S'kristina.mordaunt@enron.com'
p42
sg10
F0.0
sg11
F0.0
sg12
F0.0
sg13
F0.0
sg14
F0.0
sg15
F0.0
sg16
F1411.0
sg17
F0.0
sg18
F0.0
sg19
F0.42495409866321304
sg20
F325000.0
sg21
F208510.0
sg22
F0.5170861163173286
sg23
F0.0
sg24
F208510.0
sg25
F0.0
sg26
F267093.0
sg27
F628522.0
sg28
F0.0
ssS'MEYER ROCKFORD G'
p43
(dp44
g3
F232.0
sg4
F1848227.0
sg5
F0.0
sg6
I00
sg7
F0.0
sg8
S'rockford.meyer@enron.com'
p45
sg10
F0.0
sg11
F0.0
sg12
F0.0
sg13
F22.0
sg14
F0.0
sg15
F28.0
sg16
F0.0
sg17
F0.09482758620689655
sg18
F0.0
sg19
F0.0
sg20
F0.0
sg21
F955873.0
sg22
F0.0
sg23
F0.0
sg24
F462384.0
sg25
F0.0
sg26
F0.0
sg27
F1848227.0
sg28
F493489.0
ssS'MCMAHON JEFFREY'
p46
(dp47
g3
F2355.0
sg4
F0.0
sg5
F137108.0
sg6
I00
sg7
F694862.0
sg8
S'jeffrey.mcmahon@enron.com'
p48
sg10
F58.0
sg11
F0.0
sg12
F0.0
sg13
F2228.0
sg14
F0.0
sg15
F48.0
sg16
F297353.0
sg17
F0.9460721868365181
sg18
F0.0
sg19
F0.09035821756873738
sg20
F2600000.0
sg21
F1662855.0
sg22
F0.6341817628350461
sg23
F26.0
sg24
F558801.0
sg25
F0.024628450106157114
sg26
F370448.0
sg27
F4099771.0
sg28
F1104054.0
ssS'HORTON STANLEY C'
p49
(dp50
g3
F2350.0
sg4
F3131860.0
sg5
F0.0
sg6
I00
sg7
F0.0
sg8
S'stanley.horton@enron.com'
p51
sg10
F44.0
sg11
F0.0
sg12
F0.0
sg13
F1074.0
sg14
F0.0
sg15
F1073.0
sg16
F0.0
sg17
F0.4570212765957447
sg18
F0.0
sg19
F0.0
sg20
F0.0
sg21
F7256648.0
sg22
F0.0
sg23
F15.0
sg24
F2046079.0
sg25
F0.01872340425531915
sg26
F0.0
sg27
F3131860.0
sg28
F5210569.0
ssS'PIPER GREGORY F'
p52
(dp53
g3
F1238.0
sg4
F1130036.0
sg5
F43057.0
sg6
I00
sg7
F0.0
sg8
S'greg.piper@enron.com'
p54
sg10
F61.0
sg11
F-33333.0
sg12
F-409554.0
sg13
F742.0
sg14
F0.0
sg15
F222.0
sg16
F778.0
sg17
F0.5993537964458805
sg18
F0.0
sg19
F0.11342524785210191
sg20
F400000.0
sg21
F880290.0
sg22
F0.23019873632403695
sg23
F48.0
sg24
F409554.0
sg25
F0.049273021001615507
sg26
F197091.0
sg27
F1737629.0
sg28
F880290.0
ssS'HUMPHREY GENE E'
p55
(dp56
g3
F128.0
sg4
F2964506.0
sg5
F4994.0
sg6
I00
sg7
F0.0
sg8
S'gene.humphrey@enron.com'
p57
sg10
F10.0
sg11
F0.0
sg12
F0.0
sg13
F119.0
sg14
F0.0
sg15
F17.0
sg16
F0.0
sg17
F0.9296875
sg18
F0.0
sg19
F0.04216598542556925
sg20
F0.0
sg21
F2282768.0
sg22
F0.0
sg23
F17.0
sg24
F0.0
sg25
F0.078125
sg26
F130724.0
sg27
F3100224.0
sg28
F2282768.0
ssS'UMANOFF ADAM S'
p58
(dp59
g3
F111.0
sg4
F0.0
sg5
F53122.0
sg6
I00
sg7
F0.0
sg8
S'adam.umanoff@enron.com'
p60
sg10
F12.0
sg11
F0.0
sg12
F0.0
sg13
F41.0
sg14
F0.0
sg15
F18.0
sg16
F0.0
sg17
F0.36936936936936937
sg18
F0.0
sg19
F0.2552843485976075
sg20
F788750.0
sg21
F0.0
sg22
F0.6977242027809893
sg23
F0.0
sg24
F0.0
sg25
F0.10810810810810811
sg26
F288589.0
sg27
F1130461.0
sg28
F0.0
ssS'BLACHMAN JEREMY M'
p61
(dp62
g3
F2475.0
sg4
F0.0
sg5
F84208.0
sg6
I00
sg7
F831809.0
sg8
S'jeremy.blachman@enron.com'
p63
sg10
F25.0
sg11
F0.0
sg12
F0.0
sg13
F2326.0
sg14
F0.0
sg15
F14.0
sg16
F272.0
sg17
F0.9397979797979797
sg18
F0.0
sg19
F0.12335799209364538
sg20
F850000.0
sg21
F954354.0
sg22
F0.4218707735372872
sg23
F2.0
sg24
F189041.0
sg25
F0.010101010101010102
sg26
F248546.0
sg27
F2014835.0
sg28
F765313.0
ssS'SUNDE MARTIN'
p64
(dp65
g3
F2647.0
sg4
F0.0
sg5
F0.0
sg6
I00
sg7
F476451.0
sg8
S'marty.sunde@enron.com'
p66
sg10
F37.0
sg11
F0.0
sg12
F0.0
sg13
F2565.0
sg14
F0.0
sg15
F38.0
sg16
F111122.0
sg17
F0.9690215338118625
sg18
F0.0
sg19
F0.16665124115001434
sg20
F700000.0
sg21
F698920.0
sg22
F0.4530571324460749
sg23
F13.0
sg24
F698920.0
sg25
F0.013978088401964487
sg26
F257486.0
sg27
F1545059.0
sg28
F0.0
ssS'GIBBS DANA R'
p67
(dp68
g3
F169.0
sg4
F504610.0
sg5
F0.0
sg6
I00
sg7
F461912.0
sg8
S'dana.gibbs@enron.com'
p69
sg10
F0.0
sg11
F0.0
sg12
F0.0
sg13
F23.0
sg14
F0.0
sg15
F12.0
sg16
F0.0
sg17
F0.13609467455621302
sg18
F0.0
sg19
F0.0
sg20
F0.0
sg21
F2218275.0
sg22
F0.0
sg23
F0.0
sg24
F0.0
sg25
F0.0
sg26
F0.0
sg27
F966522.0
sg28
F2218275.0
ssS'LOWRY CHARLES P'
p70
(dp71
g3
F0.0
sg4
F0.0
sg5
F0.0
sg6
I00
sg7
F0.0
sg8
F0.0
sg10
F0.0
sg11
F0.0
sg12
F-153686.0
sg13
F0.0
sg14
F0.0
sg15
F0.0
sg16
F0.0
sg17
F0.0
sg18
F0.0
sg19
F0.0
sg20
F0.0
sg21
F372205.0
sg22
F0.0
sg23
F0.0
sg24
F153686.0
sg25
F0.0
sg26
F0.0
sg27
F0.0
sg28
F372205.0
ssS'COLWELL WESLEY'
p72
(dp73
g3
F1758.0
sg4
F27610.0
sg5
F16514.0
sg6
I01
sg7
F0.0
sg8
S'wes.colwell@enron.com'
p74
sg10
F240.0
sg11
F-144062.0
sg12
F0.0
sg13
F1132.0
sg14
F0.0
sg15
F40.0
sg16
F101740.0
sg17
F0.6439135381114903
sg18
F0.0
sg19
F0.19360765031428986
sg20
F1200000.0
sg21
F698242.0
sg22
F0.8051832328643588
sg23
F11.0
sg24
F698242.0
sg25
F0.13651877133105803
sg26
F288542.0
sg27
F1490344.0
sg28
F0.0
ssS'MULLER MARK S'
p75
(dp76
g3
F136.0
sg4
F842924.0
sg5
F0.0
sg6
I00
sg7
F1725545.0
sg8
S's..muller@enron.com'
p77
sg10
F12.0
sg11
F-719000.0
sg12
F0.0
sg13
F114.0
sg14
F0.0
sg15
F16.0
sg16
F947.0
sg17
F0.8382352941176471
sg18
F0.0
sg19
F0.07859103642331366
sg20
F1100000.0
sg21
F1416848.0
sg22
F0.3435277804670104
sg23
F0.0
sg24
F360528.0
sg25
F0.08823529411764706
sg26
F251654.0
sg27
F3202070.0
sg28
F1056320.0
ssS'JACKSON CHARLENE R'
p78
(dp79
g3
F258.0
sg4
F0.0
sg5
F10181.0
sg6
I00
sg7
F0.0
sg8
S'charlene.jackson@enron.com'
p80
sg10
F25.0
sg11
F0.0
sg12
F0.0
sg13
F117.0
sg14
F0.0
sg15
F56.0
sg16
F2435.0
sg17
F0.45348837209302323
sg18
F0.0
sg19
F0.5235334032447104
sg20
F250000.0
sg21
F725735.0
sg22
F0.453577273238578
sg23
F19.0
sg24
F540672.0
sg25
F0.09689922480620156
sg26
F288558.0
sg27
F551174.0
sg28
F185063.0
ssS'WESTFAHL RICHARD K'
p81
(dp82
g3
F0.0
sg4
F0.0
sg5
F51870.0
sg6
I00
sg7
F256191.0
sg8
S'dick.westfahl@enron.com'
p83
sg10
F0.0
sg11
F-10800.0
sg12
F0.0
sg13
F0.0
sg14
F0.0
sg15
F0.0
sg16
F401130.0
sg17
F0.0
sg18
F0.0
sg19
F0.08363872542266133
sg20
F0.0
sg21
F384930.0
sg22
F0.0
sg23
F0.0
sg24
F384930.0
sg25
F0.0
sg26
F63744.0
sg27
F762135.0
sg28
F0.0
ssS'WALTERS GARETH W'
p84
(dp85
g3
F0.0
sg4
F53625.0
sg5
F33785.0
sg6
I00
sg7
F0.0
sg8
F0.0
sg10
F0.0
sg11
F0.0
sg12
F0.0
sg13
F0.0
sg14
F0.0
sg15
F0.0
sg16
F0.0
sg17
F0.0
sg18
F0.0
sg19
F0.0
sg20
F0.0
sg21
F1030329.0
sg22
F0.0
sg23
F0.0
sg24
F0.0
sg25
F0.0
sg26
F0.0
sg27
F87410.0
sg28
F1030329.0
ssS'WALLS JR ROBERT H'
p86
(dp87
g3
F671.0
sg4
F0.0
sg5
F50936.0
sg6
I00
sg7
F540751.0
sg8
S'rob.walls@enron.com'
p88
sg10
F17.0
sg11
F0.0
sg12
F0.0
sg13
F215.0
sg14
F0.0
sg15
F146.0
sg16
F2.0
sg17
F0.3204172876304024
sg18
F0.0
sg19
F0.1985184402761872
sg20
F850000.0
sg21
F5898997.0
sg22
F0.47254250102847484
sg23
F0.0
sg24
F1552453.0
sg25
F0.02533532041728763
sg26
F357091.0
sg27
F1798780.0
sg28
F4346544.0
ssS'KITCHEN LOUISE'
p89
(dp90
g3
F8305.0
sg4
F0.0
sg5
F5774.0
sg6
I00
sg7
F0.0
sg8
S'louise.kitchen@enron.com'
p91
sg10
F251.0
sg11
F0.0
sg12
F0.0
sg13
F3669.0
sg14
F0.0
sg15
F1728.0
sg16
F93925.0
sg17
F0.441782059000602
sg18
F0.0
sg19
F0.07819964674439903
sg20
F3100000.0
sg21
F547143.0
sg22
F0.8930780973748977
sg23
F194.0
sg24
F466101.0
sg25
F0.030222757375075255
sg26
F271442.0
sg27
F3471141.0
sg28
F81042.0
ssS'CHAN RONNIE'
p92
(dp93
g3
F0.0
sg4
F0.0
sg5
F0.0
sg6
I00
sg7
F0.0
sg8
F0.0
sg10
F0.0
sg11
F-98784.0
sg12
F-32460.0
sg13
F0.0
sg14
F0.0
sg15
F0.0
sg16
F0.0
sg17
F0.0
sg18
F98784.0
sg19
F0.0
sg20
F0.0
sg21
F0.0
sg22
F0.0
sg23
F0.0
sg24
F32460.0
sg25
F0.0
sg26
F0.0
sg27
F0.0
sg28
F0.0
ssS'BELFER ROBERT'
p94
(dp95
g3
F0.0
sg4
F-102500.0
sg5
F0.0
sg6
I00
sg7
F0.0
sg8
F0.0
sg10
F0.0
sg11
F0.0
sg12
F44093.0
sg13
F0.0
sg14
F0.0
sg15
F0.0
sg16
F0.0
sg17
F0.0
sg18
F3285.0
sg19
F0.0
sg20
F0.0
sg21
F-44093.0
sg22
F0.0
sg23
F0.0
sg24
F0.0
sg25
F0.0
sg26
F0.0
sg27
F102500.0
sg28
F3285.0
ssS'SHANKMAN JEFFREY A'
p96
(dp97
g3
F3221.0
sg4
F0.0
sg5
F178979.0
sg6
I00
sg7
F554422.0
sg8
S'jeffrey.shankman@enron.com'
p98
sg10
F94.0
sg11
F0.0
sg12
F0.0
sg13
F1730.0
sg14
F0.0
sg15
F2681.0
sg16
F1191.0
sg17
F0.5371002794163303
sg18
F0.0
sg19
F0.10007891527369252
sg20
F2000000.0
sg21
F2072035.0
sg22
F0.6581757605714545
sg23
F83.0
sg24
F630137.0
sg25
F0.029183483390251473
sg26
F304110.0
sg27
F3038702.0
sg28
F1441898.0
ssS'WODRASKA JOHN'
p99
(dp100
g3
F0.0
sg4
F0.0
sg5
F0.0
sg6
I00
sg7
F0.0
sg8
S'john.wodraska@enron.com'
p101
sg10
F0.0
sg11
F0.0
sg12
F0.0
sg13
F0.0
sg14
F0.0
sg15
F0.0
sg16
F189583.0
sg17
F0.0
sg18
F0.0
sg19
F0.0
sg20
F0.0
sg21
F0.0
sg22
F0.0
sg23
F0.0
sg24
F0.0
sg25
F0.0
sg26
F0.0
sg27
F189583.0
sg28
F0.0
ssS'BERGSIEKER RICHARD P'
p102
(dp103
g3
F383.0
sg4
F0.0
sg5
F59175.0
sg6
I00
sg7
F180250.0
sg8
S'rick.bergsieker@enron.com'
p104
sg10
F4.0
sg11
F-485813.0
sg12
F0.0
sg13
F233.0
sg14
F0.0
sg15
F59.0
sg16
F427316.0
sg17
F0.608355091383812
sg18
F0.0
sg19
F0.3036632463440252
sg20
F250000.0
sg21
F659249.0
sg22
F0.4039751151329078
sg23
F0.0
sg24
F659249.0
sg25
F0.010443864229765013
sg26
F187922.0
sg27
F618850.0
sg28
F0.0
ssS'URQUHART JOHN A'
p105
(dp106
g3
F0.0
sg4
F0.0
sg5
F228656.0
sg6
I00
sg7
F0.0
sg8
F0.0
sg10
F0.0
sg11
F-36666.0
sg12
F0.0
sg13
F0.0
sg14
F0.0
sg15
F0.0
sg16
F0.0
sg17
F0.0
sg18
F36666.0
sg19
F0.0
sg20
F0.0
sg21
F0.0
sg22
F0.0
sg23
F0.0
sg24
F0.0
sg25
F0.0
sg26
F0.0
sg27
F228656.0
sg28
F0.0
ssS'BIBI PHILIPPE A'
p107
(dp108
g3
F1607.0
sg4
F0.0
sg5
F38559.0
sg6
I00
sg7
F369721.0
sg8
S'philippe.bibi@enron.com'
p109
sg10
F23.0
sg11
F0.0
sg12
F0.0
sg13
F1336.0
sg14
F0.0
sg15
F40.0
sg16
F425688.0
sg17
F0.8313627878033603
sg18
F0.0
sg19
F0.10432981554439774
sg20
F1000000.0
sg21
F1843816.0
sg22
F0.4883783056496091
sg23
F8.0
sg24
F378082.0
sg25
F0.01431238332296204
sg26
F213625.0
sg27
F2047593.0
sg28
F1465734.0
ssS'PIRO JIM'
p110
(dp111
g3
F58.0
sg4
F0.0
sg5
F0.0
sg6
I00
sg7
F0.0
sg8
S'jim.piro@enron.com'
p112
sg10
F0.0
sg11
F0.0
sg12
F0.0
sg13
F3.0
sg14
F0.0
sg15
F16.0
sg16
F0.0
sg17
F0.05172413793103448
sg18
F0.0
sg19
F0.0
sg20
F0.0
sg21
F47304.0
sg22
F0.0
sg23
F1.0
sg24
F47304.0
sg25
F0.0
sg26
F0.0
sg27
F0.0
sg28
F0.0
ssS'RIEKER PAULA H'
p113
(dp114
g3
F1328.0
sg4
F214678.0
sg5
F33271.0
sg6
I01
sg7
F0.0
sg8
S'paula.rieker@enron.com'
p115
sg10
F35.0
sg11
F-100000.0
sg12
F0.0
sg13
F1258.0
sg14
F0.0
sg15
F82.0
sg16
F1950.0
sg17
F0.947289156626506
sg18
F0.0
sg19
F0.22673187153125285
sg20
F700000.0
sg21
F1918887.0
sg22
F0.6368847238649804
sg23
F48.0
sg24
F283649.0
sg25
F0.02635542168674699
sg26
F249201.0
sg27
F1099100.0
sg28
F1635238.0
ssS'WHALEY DAVID A'
p116
(dp117
g3
F0.0
sg4
F0.0
sg5
F0.0
sg6
I00
sg7
F0.0
sg8
F0.0
sg10
F0.0
sg11
F0.0
sg12
F0.0
sg13
F0.0
sg14
F0.0
sg15
F0.0
sg16
F0.0
sg17
F0.0
sg18
F0.0
sg19
F0.0
sg20
F0.0
sg21
F98718.0
sg22
F0.0
sg23
F0.0
sg24
F0.0
sg25
F0.0
sg26
F0.0
sg27
F0.0
sg28
F98718.0
ssS'BECK SALLY W'
p118
(dp119
g3
F7315.0
sg4
F0.0
sg5
F37172.0
sg6
I00
sg7
F0.0
sg8
S'sally.beck@enron.com'
p120
sg10
F144.0
sg11
F0.0
sg12
F0.0
sg13
F2639.0
sg14
F0.0
sg15
F4343.0
sg16
F566.0
sg17
F0.36076555023923446
sg18
F0.0
sg19
F0.23871389830228631
sg20
F700000.0
sg21
F126027.0
sg22
F0.7223435300721931
sg23
F386.0
sg24
F126027.0
sg25
F0.01968557758031442
sg26
F231330.0
sg27
F969068.0
sg28
F0.0
ssS'HAUG DAVID L'
p121
(dp122
g3
F573.0
sg4
F0.0
sg5
F475.0
sg6
I00
sg7
F0.0
sg8
S'david.haug@enron.com'
p123
sg10
F4.0
sg11
F0.0
sg12
F0.0
sg13
F471.0
sg14
F0.0
sg15
F19.0
sg16
F0.0
sg17
F0.8219895287958116
sg18
F0.0
sg19
F0.0
sg20
F0.0
sg21
F2217299.0
sg22
F0.0
sg23
F7.0
sg24
F2217299.0
sg25
F0.006980802792321117
sg26
F0.0
sg27
F475.0
sg28
F0.0
ssS'ECHOLS JOHN B'
p124
(dp125
g3
F0.0
sg4
F0.0
sg5
F21530.0
sg6
I00
sg7
F2234774.0
sg8
S'john.echols@enron.com'
p126
sg10
F0.0
sg11
F0.0
sg12
F0.0
sg13
F0.0
sg14
F0.0
sg15
F0.0
sg16
F53775.0
sg17
F0.0
sg18
F0.0
sg19
F0.06769058998842635
sg20
F200000.0
sg21
F1008941.0
sg22
F0.07428526432925606
sg23
F0.0
sg24
F407503.0
sg25
F0.0
sg26
F182245.0
sg27
F2692324.0
sg28
F601438.0
ssS'MENDELSOHN JOHN'
p127
(dp128
g3
F0.0
sg4
F0.0
sg5
F148.0
sg6
I00
sg7
F0.0
sg8
F0.0
sg10
F0.0
sg11
F-103750.0
sg12
F0.0
sg13
F0.0
sg14
F0.0
sg15
F0.0
sg16
F0.0
sg17
F0.0
sg18
F103750.0
sg19
F0.0
sg20
F0.0
sg21
F0.0
sg22
F0.0
sg23
F0.0
sg24
F0.0
sg25
F0.0
sg26
F0.0
sg27
F148.0
sg28
F0.0
ssS'HICKERSON GARY J'
p129
(dp130
g3
F1320.0
sg4
F0.0
sg5
F98849.0
sg6
I00
sg7
F69223.0
sg8
S'gary.hickerson@enron.com'
p131
sg10
F40.0
sg11
F0.0
sg12
F0.0
sg13
F900.0
sg14
F0.0
sg15
F27.0
sg16
F1936.0
sg17
F0.6818181818181818
sg18
F0.0
sg19
F0.10173331104488624
sg20
F1700000.0
sg21
F441096.0
sg22
F0.8166025873812804
sg23
F1.0
sg24
F441096.0
sg25
F0.030303030303030304
sg26
F211788.0
sg27
F2081796.0
sg28
F0.0
ssS'CLINE KENNETH W'
p132
(dp133
g3
F0.0
sg4
F0.0
sg5
F0.0
sg6
I00
sg7
F0.0
sg8
F0.0
sg10
F0.0
sg11
F0.0
sg12
F-472568.0
sg13
F0.0
sg14
F0.0
sg15
F0.0
sg16
F0.0
sg17
F0.0
sg18
F0.0
sg19
F0.0
sg20
F0.0
sg21
F189518.0
sg22
F0.0
sg23
F0.0
sg24
F662086.0
sg25
F0.0
sg26
F0.0
sg27
F0.0
sg28
F0.0
ssS'LEWIS RICHARD'
p134
(dp135
g3
F952.0
sg4
F0.0
sg5
F0.0
sg6
I00
sg7
F0.0
sg8
S'richard.lewis@enron.com'
p136
sg10
F10.0
sg11
F0.0
sg12
F0.0
sg13
F739.0
sg14
F0.0
sg15
F26.0
sg16
F0.0
sg17
F0.7762605042016807
sg18
F0.0
sg19
F0.0
sg20
F0.0
sg21
F850477.0
sg22
F0.0
sg23
F0.0
sg24
F0.0
sg25
F0.01050420168067227
sg26
F0.0
sg27
F0.0
sg28
F850477.0
ssS'HAYES ROBERT E'
p137
(dp138
g3
F504.0
sg4
F7961.0
sg5
F0.0
sg6
I00
sg7
F0.0
sg8
S'robert.hayes@enron.com'
p139
sg10
F16.0
sg11
F0.0
sg12
F0.0
sg13
F50.0
sg14
F0.0
sg15
F12.0
sg16
F0.0
sg17
F0.0992063492063492
sg18
F0.0
sg19
F0.0
sg20
F0.0
sg21
F151418.0
sg22
F0.0
sg23
F0.0
sg24
F151418.0
sg25
F0.031746031746031744
sg26
F0.0
sg27
F7961.0
sg28
F0.0
ssS'KOPPER MICHAEL J'
p140
(dp141
g3
F0.0
sg4
F0.0
sg5
F118134.0
sg6
I01
sg7
F602671.0
sg8
S'michael.kopper@enron.com'
p142
sg10
F0.0
sg11
F0.0
sg12
F0.0
sg13
F0.0
sg14
F0.0
sg15
F0.0
sg16
F907502.0
sg17
F0.0
sg18
F0.0
sg19
F0.08456004873686766
sg20
F800000.0
sg21
F985032.0
sg22
F0.30158952760524343
sg23
F0.0
sg24
F985032.0
sg25
F0.0
sg26
F224305.0
sg27
F2652612.0
sg28
F0.0
ssS'LEFF DANIEL P'
p143
(dp144
g3
F2822.0
sg4
F0.0
sg5
F0.0
sg6
I00
sg7
F1387399.0
sg8
S'dan.leff@enron.com'
p145
sg10
F67.0
sg11
F0.0
sg12
F0.0
sg13
F2672.0
sg14
F0.0
sg15
F63.0
sg16
F3083.0
sg17
F0.9468462083628633
sg18
F0.0
sg19
F0.10274871369867744
sg20
F1000000.0
sg21
F360528.0
sg22
F0.3753432514034084
sg23
F14.0
sg24
F360528.0
sg25
F0.02374202693125443
sg26
F273746.0
sg27
F2664228.0
sg28
F0.0
ssS'CHRISTODOULOU DIOMEDES'
p146
(dp147
g3
F0.0
sg4
F0.0
sg5
F0.0
sg6
I00
sg7
F0.0
sg8
S'diomedes.christodoulou@enron.com'
p148
sg10
F0.0
sg11
F0.0
sg12
F0.0
sg13
F0.0
sg14
F0.0
sg15
F0.0
sg16
F0.0
sg17
F0.0
sg18
F0.0
sg19
F0.0
sg20
F0.0
sg21
F6077885.0
sg22
F0.0
sg23
F0.0
sg24
F950730.0
sg25
F0.0
sg26
F0.0
sg27
F0.0
sg28
F5127155.0
ssS'BERBERIAN DAVID'
p149
(dp150
g3
F0.0
sg4
F0.0
sg5
F11892.0
sg6
I00
sg7
F0.0
sg8
S'david.berberian@enron.com'
p151
sg10
F0.0
sg11
F0.0
sg12
F0.0
sg13
F0.0
sg14
F0.0
sg15
F0.0
sg16
F0.0
sg17
F0.0
sg18
F0.0
sg19
F0.9479503138212663
sg20
F0.0
sg21
F2493616.0
sg22
F0.0
sg23
F0.0
sg24
F869220.0
sg25
F0.0
sg26
F216582.0
sg27
F228474.0
sg28
F1624396.0
ssS'DETMERING TIMOTHY J'
p152
(dp153
g3
F0.0
sg4
F875307.0
sg5
F52255.0
sg6
I00
sg7
F415657.0
sg8
S'timothy.detmering@enron.com'
p154
sg10
F0.0
sg11
F-775241.0
sg12
F-315068.0
sg13
F0.0
sg14
F0.0
sg15
F0.0
sg16
F1105.0
sg17
F0.0
sg18
F0.0
sg19
F0.17474927007935526
sg20
F425000.0
sg21
F2027865.0
sg22
F0.3528191913716199
sg23
F0.0
sg24
F315068.0
sg25
F0.0
sg26
F210500.0
sg27
F1204583.0
sg28
F2027865.0
ssS'WAKEHAM JOHN'
p155
(dp156
g3
F0.0
sg4
F0.0
sg5
F103773.0
sg6
I00
sg7
F0.0
sg8
F0.0
sg10
F0.0
sg11
F0.0
sg12
F0.0
sg13
F0.0
sg14
F0.0
sg15
F0.0
sg16
F0.0
sg17
F0.0
sg18
F109298.0
sg19
F0.0
sg20
F0.0
sg21
F0.0
sg22
F0.0
sg23
F0.0
sg24
F0.0
sg25
F0.0
sg26
F0.0
sg27
F213071.0
sg28
F0.0
ssS'POWERS WILLIAM'
p157
(dp158
g3
F653.0
sg4
F0.0
sg5
F0.0
sg6
I00
sg7
F0.0
sg8
S'ken.powers@enron.com'
p159
sg10
F0.0
sg11
F-17500.0
sg12
F0.0
sg13
F12.0
sg14
F0.0
sg15
F26.0
sg16
F0.0
sg17
F0.018376722817764167
sg18
F17500.0
sg19
F0.0
sg20
F0.0
sg21
F0.0
sg22
F0.0
sg23
F0.0
sg24
F0.0
sg25
F0.0
sg26
F0.0
sg27
F0.0
sg28
F0.0
ssS'GOLD JOSEPH'
p160
(dp161
g3
F0.0
sg4
F0.0
sg5
F0.0
sg6
I00
sg7
F304805.0
sg8
S'joe.gold@enron.com'
p162
sg10
F0.0
sg11
F0.0
sg12
F0.0
sg13
F0.0
sg14
F0.0
sg15
F0.0
sg16
F819288.0
sg17
F0.0
sg18
F0.0
sg19
F0.12709987503336093
sg20
F750000.0
sg21
F877611.0
sg22
F0.34932903208377564
sg23
F0.0
sg24
F441096.0
sg25
F0.0
sg26
F272880.0
sg27
F2146973.0
sg28
F436515.0
ssS'BANNANTINE JAMES M'
p163
(dp164
g3
F566.0
sg4
F0.0
sg5
F56301.0
sg6
I00
sg7
F0.0
sg8
S'james.bannantine@enron.com'
p165
sg10
F39.0
sg11
F-5104.0
sg12
F-560222.0
sg13
F465.0
sg14
F0.0
sg15
F29.0
sg16
F864523.0
sg17
F0.8215547703180212
sg18
F0.0
sg19
F0.0005206303884426602
sg20
F0.0
sg21
F5243487.0
sg22
F0.0
sg23
F0.0
sg24
F1757552.0
sg25
F0.06890459363957598
sg26
F477.0
sg27
F916197.0
sg28
F4046157.0
ssS'DUNCAN JOHN H'
p166
(dp167
g3
F0.0
sg4
F0.0
sg5
F0.0
sg6
I00
sg7
F0.0
sg8
F0.0
sg10
F0.0
sg11
F-25000.0
sg12
F0.0
sg13
F0.0
sg14
F0.0
sg15
F0.0
sg16
F0.0
sg17
F0.0
sg18
F102492.0
sg19
F0.0
sg20
F0.0
sg21
F371750.0
sg22
F0.0
sg23
F0.0
sg24
F0.0
sg25
F0.0
sg26
F0.0
sg27
F77492.0
sg28
F371750.0
ssS'SHAPIRO RICHARD S'
p168
(dp169
g3
F15149.0
sg4
F0.0
sg5
F137767.0
sg6
I00
sg7
F0.0
sg8
S'richard.shapiro@enron.com'
p170
sg10
F74.0
sg11
F0.0
sg12
F0.0
sg13
F4527.0
sg14
F0.0
sg15
F1215.0
sg16
F705.0
sg17
F0.29883160604660375
sg18
F0.0
sg19
F0.25443384130082036
sg20
F650000.0
sg21
F987001.0
sg22
F0.6146293123338137
sg23
F65.0
sg24
F379164.0
sg25
F0.0048848108786058485
sg26
F269076.0
sg27
F1057548.0
sg28
F607837.0
ssS'SHERRIFF JOHN R'
p171
(dp172
g3
F3187.0
sg4
F0.0
sg5
F0.0
sg6
I00
sg7
F554422.0
sg8
S'john.sherriff@enron.com'
p173
sg10
F28.0
sg11
F0.0
sg12
F0.0
sg13
F2103.0
sg14
F0.0
sg15
F92.0
sg16
F1852186.0
sg17
F0.6598682146219015
sg18
F0.0
sg19
F0.09890233584629565
sg20
F1500000.0
sg21
F3128982.0
sg22
F0.34598979376240374
sg23
F23.0
sg24
F1293424.0
sg25
F0.008785691873235017
sg26
F428780.0
sg27
F4335388.0
sg28
F1835558.0
ssS'SHELBY REX'
p174
(dp175
g3
F225.0
sg4
F0.0
sg5
F22884.0
sg6
I01
sg7
F0.0
sg8
S'rex.shelby@enron.com'
p176
sg10
F13.0
sg11
F-4167.0
sg12
F0.0
sg13
F91.0
sg14
F0.0
sg15
F39.0
sg16
F1573324.0
sg17
F0.40444444444444444
sg18
F0.0
sg19
F0.10571664541627888
sg20
F200000.0
sg21
F2493616.0
sg22
F0.09980612659908128
sg23
F14.0
sg24
F869220.0
sg25
F0.057777777777777775
sg26
F211844.0
sg27
F2003885.0
sg28
F1624396.0
ssS'LEMAISTRE CHARLES'
p177
(dp178
g3
F0.0
sg4
F0.0
sg5
F0.0
sg6
I00
sg7
F0.0
sg8
F0.0
sg10
F0.0
sg11
F-25000.0
sg12
F0.0
sg13
F0.0
sg14
F0.0
sg15
F0.0
sg16
F0.0
sg17
F0.0
sg18
F112492.0
sg19
F0.0
sg20
F0.0
sg21
F412878.0
sg22
F0.0
sg23
F0.0
sg24
F0.0
sg25
F0.0
sg26
F0.0
sg27
F87492.0
sg28
F412878.0
ssS'DEFFNER JOSEPH M'
p179
(dp180
g3
F714.0
sg4
F0.0
sg5
F41626.0
sg6
I00
sg7
F335349.0
sg8
S'joseph.deffner@enron.com'
p181
sg10
F115.0
sg11
F0.0
sg12
F0.0
sg13
F552.0
sg14
F0.0
sg15
F74.0
sg16
F25553.0
sg17
F0.773109243697479
sg18
F0.0
sg19
F0.17053834487928257
sg20
F600000.0
sg21
F159211.0
sg22
F0.49642203815996205
sg23
F4.0
sg24
F141833.0
sg25
F0.16106442577030813
sg26
F206121.0
sg27
F1208649.0
sg28
F17378.0
ssS'KISHKILL JOSEPH G'
p182
(dp183
g3
F0.0
sg4
F0.0
sg5
F116335.0
sg6
I00
sg7
F0.0
sg8
S'joe.kishkill@enron.com'
p184
sg10
F0.0
sg11
F-51042.0
sg12
F0.0
sg13
F0.0
sg14
F0.0
sg15
F0.0
sg16
F465357.0
sg17
F0.0
sg18
F0.0
sg19
F0.2471939122934447
sg20
F0.0
sg21
F1034346.0
sg22
F0.0
sg23
F0.0
sg24
F1034346.0
sg25
F0.0
sg26
F174246.0
sg27
F704896.0
sg28
F0.0
ssS'HAYSLETT RODERICK J'
p185
(dp186
g3
F2649.0
sg4
F0.0
sg5
F0.0
sg6
I00
sg7
F0.0
sg8
S'rod.hayslett@enron.com'
p187
sg10
F35.0
sg11
F0.0
sg12
F0.0
sg13
F571.0
sg14
F0.0
sg15
F1061.0
sg16
F0.0
sg17
F0.21555303888259722
sg18
F0.0
sg19
F0.0
sg20
F0.0
sg21
F346663.0
sg22
F0.0
sg23
F38.0
sg24
F346663.0
sg25
F0.01321253303133258
sg26
F0.0
sg27
F0.0
sg28
F0.0
ssS'MCCONNELL MICHAEL S'
p188
(dp189
g3
F3329.0
sg4
F0.0
sg5
F81364.0
sg6
I00
sg7
F554422.0
sg8
S'mike.mcconnell@enron.com'
p190
sg10
F92.0
sg11
F0.0
sg12
F0.0
sg13
F2189.0
sg14
F0.0
sg15
F2742.0
sg16
F540.0
sg17
F0.657554821267648
sg18
F0.0
sg19
F0.17371478715729402
sg20
F1100000.0
sg21
F3101279.0
sg22
F0.5234695178940917
sg23
F194.0
sg24
F1478269.0
sg25
F0.02763592670471613
sg26
F365038.0
sg27
F2101364.0
sg28
F1623010.0
ssS'DELAINEY DAVID W'
p191
(dp192
g3
F3093.0
sg4
F0.0
sg5
F86174.0
sg6
I01
sg7
F1294981.0
sg8
S'david.delainey@enron.com'
p193
sg10
F66.0
sg11
F0.0
sg12
F0.0
sg13
F2097.0
sg14
F0.0
sg15
F3069.0
sg16
F1661.0
sg17
F0.6779825412221144
sg18
F0.0
sg19
F0.07690914386942319
sg20
F3000000.0
sg21
F3614261.0
sg22
F0.6318477819720769
sg23
F609.0
sg24
F1323148.0
sg25
F0.02133850630455868
sg26
F365163.0
sg27
F4747979.0
sg28
F2291113.0
ssS'SULLIVAN-SHAKLOVITZ COLLEEN'
p194
(dp195
g3
F0.0
sg4
F181993.0
sg5
F0.0
sg6
I00
sg7
F554422.0
sg8
F0.0
sg10
F0.0
sg11
F0.0
sg12
F0.0
sg13
F0.0
sg14
F0.0
sg15
F0.0
sg16
F162.0
sg17
F0.0
sg18
F0.0
sg19
F0.162883897229816
sg20
F100000.0
sg21
F1362375.0
sg22
F0.10006444150032621
sg23
F0.0
sg24
F0.0
sg25
F0.0
sg26
F162779.0
sg27
F999356.0
sg28
F1362375.0
ssS'WROBEL BRUCE'
p196
(dp197
g3
F0.0
sg4
F0.0
sg5
F0.0
sg6
I00
sg7
F0.0
sg8
F0.0
sg10
F0.0
sg11
F0.0
sg12
F0.0
sg13
F0.0
sg14
F0.0
sg15
F0.0
sg16
F0.0
sg17
F0.0
sg18
F0.0
sg19
F0.0
sg20
F0.0
sg21
F139130.0
sg22
F0.0
sg23
F0.0
sg24
F0.0
sg25
F0.0
sg26
F0.0
sg27
F0.0
sg28
F139130.0
ssS'LINDHOLM TOD A'
p198
(dp199
g3
F0.0
sg4
F204075.0
sg5
F57727.0
sg6
I00
sg7
F175000.0
sg8
S'tod.lindholm@enron.com'
p200
sg10
F0.0
sg11
F0.0
sg12
F0.0
sg13
F0.0
sg14
F0.0
sg15
F0.0
sg16
F2630.0
sg17
F0.0
sg18
F0.0
sg19
F0.2699622897421934
sg20
F200000.0
sg21
F3064208.0
sg22
F0.22833943570475254
sg23
F0.0
sg24
F514847.0
sg25
F0.0
sg26
F236457.0
sg27
F875889.0
sg28
F2549361.0
ssS'MEYER JEROME J'
p201
(dp202
g3
F0.0
sg4
F0.0
sg5
F2151.0
sg6
I00
sg7
F0.0
sg8
F0.0
sg10
F0.0
sg11
F-38346.0
sg12
F0.0
sg13
F0.0
sg14
F0.0
sg15
F0.0
sg16
F0.0
sg17
F0.0
sg18
F38346.0
sg19
F0.0
sg20
F0.0
sg21
F0.0
sg22
F0.0
sg23
F0.0
sg24
F0.0
sg25
F0.0
sg26
F0.0
sg27
F2151.0
sg28
F0.0
ssS'LAY KENNETH L'
p203
(dp204
g3
F4273.0
sg4
F202911.0
sg5
F99832.0
sg6
I01
sg7
F3600000.0
sg8
S'kenneth.lay@enron.com'
p205
sg10
F123.0
sg11
F-300000.0
sg12
F0.0
sg13
F2411.0
sg14
F81525000.0
sg15
F36.0
sg16
F10359729.0
sg17
F0.5642405803884858
sg18
F0.0
sg19
F0.010354607410233042
sg20
F7000000.0
sg21
F49110078.0
sg22
F0.06759380061719514
sg23
F16.0
sg24
F14761694.0
sg25
F0.028785396676807865
sg26
F1072321.0
sg27
F103559793.0
sg28
F34348384.0
ssS'BUTTS ROBERT H'
p206
(dp207
g3
F0.0
sg4
F0.0
sg5
F9410.0
sg6
I00
sg7
F175000.0
sg8
S'bob.butts@enron.com'
p208
sg10
F0.0
sg11
F-75000.0
sg12
F0.0
sg13
F0.0
sg14
F0.0
sg15
F0.0
sg16
F150656.0
sg17
F0.0
sg18
F0.0
sg19
F0.20566192349372672
sg20
F750000.0
sg21
F417619.0
sg22
F0.5898164648445794
sg23
F0.0
sg24
F417619.0
sg25
F0.0
sg26
F261516.0
sg27
F1271582.0
sg28
F0.0
ssS'OLSON CINDY K'
p209
(dp210
g3
F1184.0
sg4
F77716.0
sg5
F63791.0
sg6
I00
sg7
F100000.0
sg8
S'cindy.olson@enron.com'
p211
sg10
F20.0
sg11
F0.0
sg12
F0.0
sg13
F856.0
sg14
F0.0
sg15
F52.0
sg16
F972.0
sg17
F0.722972972972973
sg18
F0.0
sg19
F0.2490077991339004
sg20
F750000.0
sg21
F2606763.0
sg22
F0.5675124114964394
sg23
F15.0
sg24
F969729.0
sg25
F0.016891891891891893
sg26
F329078.0
sg27
F1321557.0
sg28
F1637034.0
ssS'MCDONALD REBECCA'
p212
(dp213
g3
F894.0
sg4
F0.0
sg5
F0.0
sg6
I00
sg7
F0.0
sg8
S'rebecca.mcdonald@enron.com'
p214
sg10
F54.0
sg11
F0.0
sg12
F0.0
sg13
F720.0
sg14
F0.0
sg15
F13.0
sg16
F0.0
sg17
F0.8053691275167785
sg18
F0.0
sg19
F0.0
sg20
F0.0
sg21
F1691366.0
sg22
F0.0
sg23
F1.0
sg24
F934065.0
sg25
F0.06040268456375839
sg26
F0.0
sg27
F0.0
sg28
F757301.0
ssS'CUMBERLAND MICHAEL S'
p215
(dp216
g3
F0.0
sg4
F0.0
sg5
F22344.0
sg6
I00
sg7
F275000.0
sg8
F0.0
sg10
F0.0
sg11
F0.0
sg12
F0.0
sg13
F0.0
sg14
F0.0
sg15
F0.0
sg16
F713.0
sg17
F0.0
sg18
F0.0
sg19
F0.2288478580516761
sg20
F325000.0
sg21
F207940.0
sg22
F0.4022496274549604
sg23
F0.0
sg24
F207940.0
sg25
F0.0
sg26
F184899.0
sg27
F807956.0
sg28
F0.0
ssS'GAHN ROBERT S'
p217
(dp218
g3
F0.0
sg4
F73122.0
sg5
F50080.0
sg6
I00
sg7
F0.0
sg8
F0.0
sg10
F0.0
sg11
F-1042.0
sg12
F0.0
sg13
F0.0
sg14
F0.0
sg15
F0.0
sg16
F76547.0
sg17
F0.0
sg18
F0.0
sg19
F0.21320363985631563
sg20
F509870.0
sg21
F318607.0
sg22
F0.5661542219779365
sg23
F0.0
sg24
F235370.0
sg25
F0.0
sg26
F192008.0
sg27
F900585.0
sg28
F83237.0
ssS'BADUM JAMES P'
p219
(dp220
g3
F0.0
sg4
F178980.0
sg5
F3486.0
sg6
I00
sg7
F0.0
sg8
F0.0
sg10
F0.0
sg11
F0.0
sg12
F0.0
sg13
F0.0
sg14
F0.0
sg15
F0.0
sg16
F0.0
sg17
F0.0
sg18
F0.0
sg19
F0.0
sg20
F0.0
sg21
F257817.0
sg22
F0.0
sg23
F0.0
sg24
F0.0
sg25
F0.0
sg26
F0.0
sg27
F182466.0
sg28
F257817.0
ssS'HERMANN ROBERT J'
p221
(dp222
g3
F0.0
sg4
F0.0
sg5
F48357.0
sg6
I00
sg7
F150000.0
sg8
S'robert.hermann@enron.com'
p223
sg10
F0.0
sg11
F-280000.0
sg12
F0.0
sg13
F0.0
sg14
F0.0
sg15
F0.0
sg16
F416441.0
sg17
F0.0
sg18
F0.0
sg19
F0.20244384995001777
sg20
F700000.0
sg21
F668132.0
sg22
F0.5395152532523135
sg23
F0.0
sg24
F480632.0
sg25
F0.0
sg26
F262663.0
sg27
F1297461.0
sg28
F187500.0
ssS'SCRIMSHAW MATTHEW'
p224
(dp225
g3
F0.0
sg4
F0.0
sg5
F0.0
sg6
I00
sg7
F0.0
sg8
S'matthew.scrimshaw@enron.com'
p226
sg10
F0.0
sg11
F0.0
sg12
F0.0
sg13
F0.0
sg14
F0.0
sg15
F0.0
sg16
F0.0
sg17
F0.0
sg18
F0.0
sg19
F0.0
sg20
F0.0
sg21
F759557.0
sg22
F0.0
sg23
F0.0
sg24
F0.0
sg25
F0.0
sg26
F0.0
sg27
F0.0
sg28
F759557.0
ssS'GATHMANN WILLIAM D'
p227
(dp228
g3
F0.0
sg4
F0.0
sg5
F0.0
sg6
I00
sg7
F0.0
sg8
F0.0
sg10
F0.0
sg11
F0.0
sg12
F-72419.0
sg13
F0.0
sg14
F0.0
sg15
F0.0
sg16
F0.0
sg17
F0.0
sg18
F0.0
sg19
F0.0
sg20
F0.0
sg21
F1945360.0
sg22
F0.0
sg23
F0.0
sg24
F264013.0
sg25
F0.0
sg26
F0.0
sg27
F0.0
sg28
F1753766.0
ssS'HAEDICKE MARK E'
p229
(dp230
g3
F4009.0
sg4
F2157527.0
sg5
F76169.0
sg6
I00
sg7
F983346.0
sg8
S'mark.haedicke@enron.com'
p231
sg10
F180.0
sg11
F-934484.0
sg12
F-329825.0
sg13
F1847.0
sg14
F0.0
sg15
F1941.0
sg16
F52382.0
sg17
F0.4607133948615615
sg18
F0.0
sg19
F0.09694705841959127
sg20
F1150000.0
sg21
F803094.0
sg22
F0.29799964499172726
sg23
F61.0
sg24
F524169.0
sg25
F0.04489897730107259
sg26
F374125.0
sg27
F3859065.0
sg28
F608750.0
ssS'BOWEN JR RAYMOND M'
p232
(dp233
g3
F1858.0
sg4
F0.0
sg5
F65907.0
sg6
I01
sg7
F974293.0
sg8
S'raymond.bowen@enron.com'
p234
sg10
F140.0
sg11
F-833.0
sg12
F0.0
sg13
F1593.0
sg14
F0.0
sg15
F27.0
sg16
F1621.0
sg17
F0.8573735199138859
sg18
F0.0
sg19
F0.10436100837994162
sg20
F1350000.0
sg21
F252055.0
sg22
F0.5056958205926081
sg23
F15.0
sg24
F252055.0
sg25
F0.07534983853606028
sg26
F278601.0
sg27
F2669589.0
sg28
F0.0
ssS'GILLIS JOHN'
p235
(dp236
g3
F0.0
sg4
F0.0
sg5
F0.0
sg6
I00
sg7
F0.0
sg8
F0.0
sg10
F0.0
sg11
F0.0
sg12
F0.0
sg13
F0.0
sg14
F0.0
sg15
F0.0
sg16
F0.0
sg17
F0.0
sg18
F0.0
sg19
F0.0
sg20
F0.0
sg21
F85641.0
sg22
F0.0
sg23
F0.0
sg24
F75838.0
sg25
F0.0
sg26
F0.0
sg27
F0.0
sg28
F9803.0
ssS'FITZGERALD JAY L'
p237
(dp238
g3
F936.0
sg4
F0.0
sg5
F23870.0
sg6
I00
sg7
F556416.0
sg8
S'jay.fitzgerald@enron.com'
p239
sg10
F1.0
sg11
F0.0
sg12
F0.0
sg13
F723.0
sg14
F0.0
sg15
F16.0
sg16
F285414.0
sg17
F0.7724358974358975
sg18
F0.0
sg19
F0.14076122180545456
sg20
F350000.0
sg21
F1621236.0
sg22
F0.24737482303865338
sg23
F8.0
sg24
F956775.0
sg25
F0.0010683760683760685
sg26
F199157.0
sg27
F1414857.0
sg28
F664461.0
ssS'MORAN MICHAEL P'
p240
(dp241
g3
F672.0
sg4
F0.0
sg5
F0.0
sg6
I00
sg7
F0.0
sg8
S'michael.moran@enron.com'
p242
sg10
F0.0
sg11
F0.0
sg12
F0.0
sg13
F127.0
sg14
F0.0
sg15
F19.0
sg16
F0.0
sg17
F0.18898809523809523
sg18
F0.0
sg19
F0.0
sg20
F0.0
sg21
F221141.0
sg22
F0.0
sg23
F0.0
sg24
F161602.0
sg25
F0.0
sg26
F0.0
sg27
F0.0
sg28
F59539.0
ssS'REDMOND BRIAN L'
p243
(dp244
g3
F1671.0
sg4
F0.0
sg5
F14689.0
sg6
I00
sg7
F0.0
sg8
S'brian.redmond@enron.com'
p245
sg10
F204.0
sg11
F0.0
sg12
F0.0
sg13
F1063.0
sg14
F0.0
sg15
F221.0
sg16
F0.0
sg17
F0.6361460203470976
sg18
F0.0
sg19
F0.8682943449685732
sg20
F0.0
sg21
F7890324.0
sg22
F0.0
sg23
F49.0
sg24
F381285.0
sg25
F0.12208258527827648
sg26
F96840.0
sg27
F111529.0
sg28
F7509039.0
ssS'BAZELIDES PHILIP J'
p246
(dp247
g3
F0.0
sg4
F684694.0
sg5
F0.0
sg6
I00
sg7
F93750.0
sg8
F0.0
sg10
F0.0
sg11
F0.0
sg12
F0.0
sg13
F0.0
sg14
F0.0
sg15
F0.0
sg16
F874.0
sg17
F0.0
sg18
F0.0
sg19
F0.0939595598835533
sg20
F0.0
sg21
F1599641.0
sg22
F0.0
sg23
F0.0
sg24
F0.0
sg25
F0.0
sg26
F80818.0
sg27
F860136.0
sg28
F1599641.0
ssS'BELDEN TIMOTHY N'
p248
(dp249
g3
F7991.0
sg4
F2144013.0
sg5
F17355.0
sg6
I01
sg7
F0.0
sg8
S'tim.belden@enron.com'
p250
sg10
F228.0
sg11
F-2334434.0
sg12
F0.0
sg13
F5521.0
sg14
F0.0
sg15
F484.0
sg16
F210698.0
sg17
F0.6909022650481792
sg18
F0.0
sg19
F0.03889738132153562
sg20
F5249999.0
sg21
F1110705.0
sg22
F0.9542624640333864
sg23
F108.0
sg24
F157569.0
sg25
F0.028532098610937303
sg26
F213999.0
sg27
F5501630.0
sg28
F953136.0
ssS'DURAN WILLIAM D'
p251
(dp252
g3
F904.0
sg4
F0.0
sg5
F25785.0
sg6
I00
sg7
F1105218.0
sg8
S'w.duran@enron.com'
p253
sg10
F106.0
sg11
F0.0
sg12
F0.0
sg13
F599.0
sg14
F0.0
sg15
F12.0
sg16
F1568.0
sg17
F0.6626106194690266
sg18
F0.0
sg19
F0.10065242637929396
sg20
F750000.0
sg21
F1640910.0
sg22
F0.3582922929416896
sg23
F3.0
sg24
F189041.0
sg25
F0.1172566371681416
sg26
F210692.0
sg27
F2093263.0
sg28
F1451869.0
ssS'THORN TERENCE H'
p254
(dp255
g3
F266.0
sg4
F16586.0
sg5
F46145.0
sg6
I00
sg7
F200000.0
sg8
S'terence.thorn@enron.com'
p256
sg10
F0.0
sg11
F0.0
sg12
F0.0
sg13
F73.0
sg14
F0.0
sg15
F41.0
sg16
F426629.0
sg17
F0.2744360902255639
sg18
F0.0
sg19
F0.24366917438419755
sg20
F0.0
sg21
F4817796.0
sg22
F0.0
sg23
F0.0
sg24
F365320.0
sg25
F0.0
sg26
F222093.0
sg27
F911453.0
sg28
F4452476.0
ssS'FASTOW ANDREW S'
p257
(dp258
g3
F0.0
sg4
F0.0
sg5
F55921.0
sg6
I01
sg7
F1736055.0
sg8
S'andrew.fastow@enron.com'
p259
sg10
F0.0
sg11
F-1386055.0
sg12
F0.0
sg13
F0.0
sg14
F0.0
sg15
F0.0
sg16
F277464.0
sg17
F0.0
sg18
F0.0
sg19
F0.1817998806146489
sg20
F1300000.0
sg21
F1794412.0
sg22
F0.5362852674599013
sg23
F0.0
sg24
F1794412.0
sg25
F0.0
sg26
F440698.0
sg27
F2424083.0
sg28
F0.0
ssS'FOY JOE'
p260
(dp261
g3
F57.0
sg4
F181755.0
sg5
F0.0
sg6
I00
sg7
F0.0
sg8
S'tracy.foy@enron.com'
p262
sg10
F0.0
sg11
F0.0
sg12
F0.0
sg13
F2.0
sg14
F0.0
sg15
F13.0
sg16
F0.0
sg17
F0.03508771929824561
sg18
F0.0
sg19
F0.0
sg20
F0.0
sg21
F343434.0
sg22
F0.0
sg23
F0.0
sg24
F0.0
sg25
F0.0
sg26
F0.0
sg27
F181755.0
sg28
F343434.0
ssS'CALGER CHRISTOPHER F'
p263
(dp264
g3
F2598.0
sg4
F0.0
sg5
F35818.0
sg6
I01
sg7
F375304.0
sg8
S'christopher.calger@enron.com'
p265
sg10
F199.0
sg11
F-262500.0
sg12
F0.0
sg13
F2188.0
sg14
F0.0
sg15
F144.0
sg16
F486.0
sg17
F0.8421862971516552
sg18
F0.0
sg19
F0.14651951415759315
sg20
F1250000.0
sg21
F126027.0
sg22
F0.7625219835087845
sg23
F25.0
sg24
F126027.0
sg25
F0.07659738260200154
sg26
F240189.0
sg27
F1639297.0
sg28
F0.0
ssS'RICE KENNETH D'
p266
(dp267
g3
F905.0
sg4
F0.0
sg5
F46950.0
sg6
I01
sg7
F1617011.0
sg8
S'ken.rice@enron.com'
p268
sg10
F42.0
sg11
F-3504386.0
sg12
F0.0
sg13
F864.0
sg14
F0.0
sg15
F18.0
sg16
F174839.0
sg17
F0.9546961325966851
sg18
F0.0
sg19
F0.8328601128601129
sg20
F1750000.0
sg21
F22542539.0
sg22
F3.465003465003465
sg23
F4.0
sg24
F2748364.0
sg25
F0.04640883977900553
sg26
F420636.0
sg27
F505050.0
sg28
F19794175.0
ssS'KAMINSKI WINCENTY J'
p269
(dp270
g3
F4607.0
sg4
F0.0
sg5
F83585.0
sg6
I00
sg7
F323466.0
sg8
S'vince.kaminski@enron.com'
p271
sg10
F41.0
sg11
F0.0
sg12
F0.0
sg13
F583.0
sg14
F0.0
sg15
F14368.0
sg16
F4669.0
sg17
F0.1265465595832429
sg18
F0.0
sg19
F0.2531244795601116
sg20
F400000.0
sg21
F976037.0
sg22
F0.368045887961311
sg23
F171.0
sg24
F126027.0
sg25
F0.008899500759713479
sg26
F275101.0
sg27
F1086821.0
sg28
F850010.0
ssS'LOCKHART EUGENE E'
p272
(dp273
g3
F0.0
sg4
F0.0
sg5
F0.0
sg6
I00
sg7
F0.0
sg8
F0.0
sg10
F0.0
sg11
F0.0
sg12
F0.0
sg13
F0.0
sg14
F0.0
sg15
F0.0
sg16
F0.0
sg17
F0.0
sg18
F0.0
sg19
F0.0
sg20
F0.0
sg21
F0.0
sg22
F0.0
sg23
F0.0
sg24
F0.0
sg25
F0.0
sg26
F0.0
sg27
F0.0
sg28
F0.0
ssS'COX DAVID'
p274
(dp275
g3
F102.0
sg4
F0.0
sg5
F27861.0
sg6
I00
sg7
F0.0
sg8
S'chip.cox@enron.com'
p276
sg10
F0.0
sg11
F-41250.0
sg12
F0.0
sg13
F71.0
sg14
F0.0
sg15
F33.0
sg16
F494.0
sg17
F0.696078431372549
sg18
F0.0
sg19
F0.28535500044035145
sg20
F800000.0
sg21
F495633.0
sg22
F0.7263529003725282
sg23
F4.0
sg24
F378082.0
sg25
F0.0
sg26
F314288.0
sg27
F1101393.0
sg28
F117551.0
ssS'OVERDYKE JR JERE C'
p277
(dp278
g3
F0.0
sg4
F0.0
sg5
F18834.0
sg6
I00
sg7
F135836.0
sg8
S'jere.overdyke@enron.com'
p279
sg10
F0.0
sg11
F0.0
sg12
F0.0
sg13
F0.0
sg14
F0.0
sg15
F0.0
sg16
F176.0
sg17
F0.0
sg18
F0.0
sg19
F0.38008783483527964
sg20
F0.0
sg21
F7307594.0
sg22
F0.0
sg23
F0.0
sg24
F2041016.0
sg25
F0.0
sg26
F94941.0
sg27
F249787.0
sg28
F5266578.0
ssS'PEREIRA PAULO V. FERRAZ'
p280
(dp281
g3
F0.0
sg4
F0.0
sg5
F27942.0
sg6
I00
sg7
F0.0
sg8
F0.0
sg10
F0.0
sg11
F-101250.0
sg12
F0.0
sg13
F0.0
sg14
F0.0
sg15
F0.0
sg16
F0.0
sg17
F0.0
sg18
F101250.0
sg19
F0.0
sg20
F0.0
sg21
F0.0
sg22
F0.0
sg23
F0.0
sg24
F0.0
sg25
F0.0
sg26
F0.0
sg27
F27942.0
sg28
F0.0
ssS'STABLER FRANK'
p282
(dp283
g3
F0.0
sg4
F0.0
sg5
F16514.0
sg6
I00
sg7
F0.0
sg8
S'frank.stabler@enron.com'
p284
sg10
F0.0
sg11
F0.0
sg12
F0.0
sg13
F0.0
sg14
F0.0
sg15
F0.0
sg16
F356071.0
sg17
F0.0
sg18
F0.0
sg19
F0.21536264698715119
sg20
F500000.0
sg21
F511734.0
sg22
F0.44960511183027946
sg23
F0.0
sg24
F511734.0
sg25
F0.0
sg26
F239502.0
sg27
F1112087.0
sg28
F0.0
ssS'SKILLING JEFFREY K'
p285
(dp286
g3
F3627.0
sg4
F0.0
sg5
F29336.0
sg6
I01
sg7
F1920000.0
sg8
S'jeff.skilling@enron.com'
p287
sg10
F88.0
sg11
F0.0
sg12
F0.0
sg13
F2042.0
sg14
F0.0
sg15
F108.0
sg16
F22122.0
sg17
F0.5629997242900469
sg18
F0.0
sg19
F0.12798506826665756
sg20
F5600000.0
sg21
F26093672.0
sg22
F0.6449594804206426
sg23
F30.0
sg24
F6843672.0
sg25
F0.0242624758753791
sg26
F1111258.0
sg27
F8682716.0
sg28
F19250000.0
ssS'BLAKE JR. NORMAN P'
p288
(dp289
g3
F0.0
sg4
F0.0
sg5
F1279.0
sg6
I00
sg7
F0.0
sg8
F0.0
sg10
F0.0
sg11
F-113784.0
sg12
F0.0
sg13
F0.0
sg14
F0.0
sg15
F0.0
sg16
F0.0
sg17
F0.0
sg18
F113784.0
sg19
F0.0
sg20
F0.0
sg21
F0.0
sg22
F0.0
sg23
F0.0
sg24
F0.0
sg25
F0.0
sg26
F0.0
sg27
F1279.0
sg28
F0.0
ssS'SHERRICK JEFFREY B'
p290
(dp291
g3
F613.0
sg4
F0.0
sg5
F0.0
sg6
I00
sg7
F0.0
sg8
S'jeffrey.sherrick@enron.com'
p292
sg10
F39.0
sg11
F0.0
sg12
F0.0
sg13
F583.0
sg14
F0.0
sg15
F25.0
sg16
F0.0
sg17
F0.9510603588907015
sg18
F0.0
sg19
F0.0
sg20
F0.0
sg21
F1832468.0
sg22
F0.0
sg23
F18.0
sg24
F405999.0
sg25
F0.0636215334420881
sg26
F0.0
sg27
F0.0
sg28
F1426469.0
ssS'PRENTICE JAMES'
p293
(dp294
g3
F0.0
sg4
F564348.0
sg5
F0.0
sg6
I00
sg7
F0.0
sg8
S'james.prentice@enron.com'
p295
sg10
F0.0
sg11
F0.0
sg12
F0.0
sg13
F0.0
sg14
F0.0
sg15
F0.0
sg16
F0.0
sg17
F0.0
sg18
F0.0
sg19
F0.0
sg20
F0.0
sg21
F1095040.0
sg22
F0.0
sg23
F0.0
sg24
F208809.0
sg25
F0.0
sg26
F0.0
sg27
F564348.0
sg28
F886231.0
ssS'GRAY RODNEY'
p296
(dp297
g3
F0.0
sg4
F93585.0
sg5
F0.0
sg6
I00
sg7
F365625.0
sg8
F0.0
sg10
F0.0
sg11
F0.0
sg12
F0.0
sg13
F0.0
sg14
F0.0
sg15
F0.0
sg16
F680833.0
sg17
F0.0
sg18
F0.0
sg19
F0.005768938951282772
sg20
F0.0
sg21
F0.0
sg22
F0.0
sg23
F0.0
sg24
F0.0
sg25
F0.0
sg26
F6615.0
sg27
F1146658.0
sg28
F0.0
ssS'PICKERING MARK R'
p298
(dp299
g3
F898.0
sg4
F0.0
sg5
F31653.0
sg6
I00
sg7
F0.0
sg8
S'mark.pickering@enron.com'
p300
sg10
F7.0
sg11
F0.0
sg12
F0.0
sg13
F728.0
sg14
F400000.0
sg15
F67.0
sg16
F0.0
sg17
F0.8106904231625836
sg18
F0.0
sg19
F0.47237450331364617
sg20
F300000.0
sg21
F28798.0
sg22
F0.21634251346732147
sg23
F0.0
sg24
F0.0
sg25
F0.0077951002227171495
sg26
F655037.0
sg27
F1386690.0
sg28
F28798.0
ssS'THE TRAVEL AGENCY IN THE PARK'
p301
(dp302
g3
F0.0
sg4
F0.0
sg5
F0.0
sg6
I00
sg7
F0.0
sg8
F0.0
sg10
F0.0
sg11
F0.0
sg12
F0.0
sg13
F0.0
sg14
F0.0
sg15
F0.0
sg16
F362096.0
sg17
F0.0
sg18
F0.0
sg19
F0.0
sg20
F0.0
sg21
F0.0
sg22
F0.0
sg23
F0.0
sg24
F0.0
sg25
F0.0
sg26
F0.0
sg27
F362096.0
sg28
F0.0
ssS'NOLES JAMES L'
p303
(dp304
g3
F0.0
sg4
F774401.0
sg5
F0.0
sg6
I00
sg7
F0.0
sg8
F0.0
sg10
F0.0
sg11
F0.0
sg12
F-94556.0
sg13
F0.0
sg14
F0.0
sg15
F0.0
sg16
F0.0
sg17
F0.0
sg18
F0.0
sg19
F0.0
sg20
F0.0
sg21
F368705.0
sg22
F0.0
sg23
F0.0
sg24
F463261.0
sg25
F0.0
sg26
F0.0
sg27
F774401.0
sg28
F0.0
ssS'KEAN STEVEN J'
p305
(dp306
g3
F12754.0
sg4
F0.0
sg5
F41953.0
sg6
I00
sg7
F300000.0
sg8
S'steven.kean@enron.com'
p307
sg10
F140.0
sg11
F0.0
sg12
F0.0
sg13
F3639.0
sg14
F0.0
sg15
F6759.0
sg16
F1231.0
sg17
F0.2853222518425592
sg18
F0.0
sg19
F0.23137791684453757
sg20
F1000000.0
sg21
F6153642.0
sg22
F0.5722388616566773
sg23
F387.0
sg24
F4131594.0
sg25
F0.010976948408342482
sg26
F404338.0
sg27
F1747522.0
sg28
F2022048.0
ssS'FOWLER PEGGY'
p308
(dp309
g3
F517.0
sg4
F0.0
sg5
F0.0
sg6
I00
sg7
F0.0
sg8
S'kulvinder.fowler@enron.com'
p310
sg10
F0.0
sg11
F0.0
sg12
F0.0
sg13
F10.0
sg14
F0.0
sg15
F36.0
sg16
F0.0
sg17
F0.019342359767891684
sg18
F0.0
sg19
F0.0
sg20
F0.0
sg21
F1884748.0
sg22
F0.0
sg23
F0.0
sg24
F560170.0
sg25
F0.0
sg26
F0.0
sg27
F0.0
sg28
F1324578.0
ssS'WASAFF GEORGE'
p311
(dp312
g3
F400.0
sg4
F831299.0
sg5
F0.0
sg6
I00
sg7
F200000.0
sg8
S'george.wasaff@enron.com'
p313
sg10
F22.0
sg11
F-583325.0
sg12
F0.0
sg13
F337.0
sg14
F0.0
sg15
F30.0
sg16
F1425.0
sg17
F0.8425
sg18
F0.0
sg19
F0.2513507895919837
sg20
F325000.0
sg21
F2056427.0
sg22
F0.3141933207333755
sg23
F7.0
sg24
F388167.0
sg25
F0.055
sg26
F259996.0
sg27
F1034395.0
sg28
F1668260.0
ssS'WHITE JR THOMAS E'
p314
(dp315
g3
F0.0
sg4
F0.0
sg5
F81353.0
sg6
I00
sg7
F0.0
sg8
S'thomas.white@enron.com'
p316
sg10
F0.0
sg11
F0.0
sg12
F0.0
sg13
F0.0
sg14
F0.0
sg15
F0.0
sg16
F1085463.0
sg17
F0.0
sg18
F0.0
sg19
F0.1641592899766796
sg20
F450000.0
sg21
F15144123.0
sg22
F0.23263520370313887
sg23
F0.0
sg24
F13847074.0
sg25
F0.0
sg26
F317543.0
sg27
F1934359.0
sg28
F1297049.0
ssS'ALLEN PHILLIP K'
p317
(dp318
g3
F2902.0
sg4
F2869717.0
sg5
F13868.0
sg6
I00
sg7
F304805.0
sg8
S'phillip.allen@enron.com'
p319
sg10
F47.0
sg11
F-3081055.0
sg12
F-126027.0
sg13
F1407.0
sg14
F0.0
sg15
F2195.0
sg16
F152.0
sg17
F0.4848380427291523
sg18
F0.0
sg19
F0.04503458847276874
sg20
F4175000.0
sg21
F1729541.0
sg22
F0.9309965431596617
sg23
F65.0
sg24
F126027.0
sg25
F0.016195727084769126
sg26
F201955.0
sg27
F4484442.0
sg28
F1729541.0
ssS'SHARP VICTORIA T'
p320
(dp321
g3
F3136.0
sg4
F187469.0
sg5
F116337.0
sg6
I00
sg7
F422158.0
sg8
S'vicki.sharp@enron.com'
p322
sg10
F24.0
sg11
F0.0
sg12
F0.0
sg13
F2477.0
sg14
F0.0
sg15
F136.0
sg16
F2401.0
sg17
F0.7898596938775511
sg18
F0.0
sg19
F0.15740200988131386
sg20
F600000.0
sg21
F494136.0
sg22
F0.38058725882661143
sg23
F6.0
sg24
F213063.0
sg25
F0.007653061224489796
sg26
F248146.0
sg27
F1576511.0
sg28
F281073.0
ssS'JAEDICKE ROBERT'
p323
(dp324
g3
F0.0
sg4
F0.0
sg5
F0.0
sg6
I00
sg7
F0.0
sg8
F0.0
sg10
F0.0
sg11
F-25000.0
sg12
F-44093.0
sg13
F0.0
sg14
F0.0
sg15
F0.0
sg16
F0.0
sg17
F0.0
sg18
F108750.0
sg19
F0.0
sg20
F0.0
sg21
F431750.0
sg22
F0.0
sg23
F0.0
sg24
F44093.0
sg25
F0.0
sg26
F0.0
sg27
F83750.0
sg28
F431750.0
ssS'WINOKUR JR. HERBERT S'
p325
(dp326
g3
F0.0
sg4
F0.0
sg5
F1413.0
sg6
I00
sg7
F0.0
sg8
F0.0
sg10
F0.0
sg11
F-25000.0
sg12
F0.0
sg13
F0.0
sg14
F0.0
sg15
F0.0
sg16
F0.0
sg17
F0.0
sg18
F108579.0
sg19
F0.0
sg20
F0.0
sg21
F0.0
sg22
F0.0
sg23
F0.0
sg24
F0.0
sg25
F0.0
sg26
F0.0
sg27
F84992.0
sg28
F0.0
ssS'BROWN MICHAEL'
p327
(dp328
g3
F1486.0
sg4
F0.0
sg5
F49288.0
sg6
I00
sg7
F0.0
sg8
S'michael.brown@enron.com'
p329
sg10
F13.0
sg11
F0.0
sg12
F0.0
sg13
F761.0
sg14
F0.0
sg15
F41.0
sg16
F0.0
sg17
F0.5121130551816958
sg18
F0.0
sg19
F0.0
sg20
F0.0
sg21
F0.0
sg22
F0.0
sg23
F1.0
sg24
F0.0
sg25
F0.008748317631224764
sg26
F0.0
sg27
F49288.0
sg28
F0.0
ssS'MCCLELLAN GEORGE'
p330
(dp331
g3
F1744.0
sg4
F0.0
sg5
F228763.0
sg6
I00
sg7
F0.0
sg8
S'george.mcclellan@enron.com'
p332
sg10
F52.0
sg11
F-125000.0
sg12
F0.0
sg13
F1469.0
sg14
F0.0
sg15
F49.0
sg16
F51587.0
sg17
F0.8423165137614679
sg18
F0.0
sg19
F0.1997424859508494
sg20
F900000.0
sg21
F947861.0
sg22
F0.6824577274309334
sg23
F0.0
sg24
F441096.0
sg25
F0.02981651376146789
sg26
F263413.0
sg27
F1318763.0
sg28
F506765.0
ssS'HUGHES JAMES A'
p333
(dp334
g3
F719.0
sg4
F0.0
sg5
F0.0
sg6
I00
sg7
F0.0
sg8
S'james.hughes@enron.com'
p335
sg10
F35.0
sg11
F0.0
sg12
F0.0
sg13
F589.0
sg14
F0.0
sg15
F34.0
sg16
F0.0
sg17
F0.8191933240611962
sg18
F0.0
sg19
F0.0
sg20
F0.0
sg21
F1118394.0
sg22
F0.0
sg23
F5.0
sg24
F363428.0
sg25
F0.048678720445062586
sg26
F0.0
sg27
F0.0
sg28
F754966.0
ssS'REYNOLDS LAWRENCE'
p336
(dp337
g3
F0.0
sg4
F51365.0
sg5
F8409.0
sg6
I00
sg7
F156250.0
sg8
F0.0
sg10
F0.0
sg11
F-200000.0
sg12
F-140264.0
sg13
F0.0
sg14
F0.0
sg15
F0.0
sg16
F202052.0
sg17
F0.0
sg18
F0.0
sg19
F0.1936726028265416
sg20
F100000.0
sg21
F4221891.0
sg22
F0.2535014893212498
sg23
F0.0
sg24
F201483.0
sg25
F0.0
sg26
F76399.0
sg27
F394475.0
sg28
F4160672.0
ssS'DIMICHELE RICHARD G'
p338
(dp339
g3
F0.0
sg4
F0.0
sg5
F35812.0
sg6
I00
sg7
F694862.0
sg8
S'richard.dimichele@enron.com'
p340
sg10
F0.0
sg11
F0.0
sg12
F0.0
sg13
F0.0
sg14
F0.0
sg15
F0.0
sg16
F374689.0
sg17
F0.0
sg18
F0.0
sg19
F0.11096758610409556
sg20
F1000000.0
sg21
F8317782.0
sg22
F0.42227037042823706
sg23
F0.0
sg24
F126027.0
sg25
F0.0
sg26
F262788.0
sg27
F2368151.0
sg28
F8191755.0
ssS'CARTER REBECCA C'
p341
(dp342
g3
F312.0
sg4
F0.0
sg5
F0.0
sg6
I00
sg7
F75000.0
sg8
S'rebecca.carter@enron.com'
p343
sg10
F29.0
sg11
F-159792.0
sg12
F-307301.0
sg13
F196.0
sg14
F0.0
sg15
F15.0
sg16
F540.0
sg17
F0.6282051282051282
sg18
F0.0
sg19
F0.5482256568325875
sg20
F300000.0
sg21
F0.0
sg22
F0.6281972623163308
sg23
F7.0
sg24
F307301.0
sg25
F0.09294871794871795
sg26
F261809.0
sg27
F477557.0
sg28
F0.0
ssS'BUCHANAN HAROLD G'
p344
(dp345
g3
F1088.0
sg4
F0.0
sg5
F600.0
sg6
I00
sg7
F304805.0
sg8
S'john.buchanan@enron.com'
p346
sg10
F0.0
sg11
F0.0
sg12
F0.0
sg13
F23.0
sg14
F0.0
sg15
F125.0
sg16
F1215.0
sg17
F0.021139705882352942
sg18
F0.0
sg19
F0.23516811945721608
sg20
F500000.0
sg21
F1014505.0
sg22
F0.47409677453000415
sg23
F0.0
sg24
F189041.0
sg25
F0.0
sg26
F248017.0
sg27
F1054637.0
sg28
F825464.0
ssS'YEAP SOON'
p347
(dp348
g3
F0.0
sg4
F0.0
sg5
F55097.0
sg6
I00
sg7
F0.0
sg8
F0.0
sg10
F0.0
sg11
F0.0
sg12
F0.0
sg13
F0.0
sg14
F0.0
sg15
F0.0
sg16
F0.0
sg17
F0.0
sg18
F0.0
sg19
F0.0
sg20
F0.0
sg21
F192758.0
sg22
F0.0
sg23
F0.0
sg24
F0.0
sg25
F0.0
sg26
F0.0
sg27
F55097.0
sg28
F192758.0
ssS'MURRAY JULIA H'
p349
(dp350
g3
F2192.0
sg4
F0.0
sg5
F57580.0
sg6
I00
sg7
F125000.0
sg8
S'julia.murray@enron.com'
p351
sg10
F11.0
sg11
F0.0
sg12
F0.0
sg13
F395.0
sg14
F0.0
sg15
F45.0
sg16
F330.0
sg17
F0.1802007299270073
sg18
F0.0
sg19
F0.2823020115883644
sg20
F400000.0
sg21
F597461.0
sg22
F0.4924931728133919
sg23
F2.0
sg24
F196983.0
sg25
F0.005018248175182482
sg26
F229284.0
sg27
F812194.0
sg28
F400478.0
ssS'GARLAND C KEVIN'
p352
(dp353
g3
F209.0
sg4
F0.0
sg5
F48405.0
sg6
I00
sg7
F375304.0
sg8
S'kevin.garland@enron.com'
p354
sg10
F10.0
sg11
F0.0
sg12
F0.0
sg13
F178.0
sg14
F0.0
sg15
F44.0
sg16
F60814.0
sg17
F0.8516746411483254
sg18
F0.0
sg19
F0.14806932023551056
sg20
F850000.0
sg21
F896153.0
sg22
F0.5426216541789208
sg23
F27.0
sg24
F259907.0
sg25
F0.04784688995215311
sg26
F231946.0
sg27
F1566469.0
sg28
F636246.0
ssS'DODSON KEITH'
p355
(dp356
g3
F176.0
sg4
F0.0
sg5
F28164.0
sg6
I00
sg7
F0.0
sg8
S'keith.dodson@enron.com'
p357
sg10
F10.0
sg11
F0.0
sg12
F0.0
sg13
F114.0
sg14
F0.0
sg15
F14.0
sg16
F774.0
sg17
F0.6477272727272727
sg18
F0.0
sg19
F0.6907617341947422
sg20
F70000.0
sg21
F0.0
sg22
F0.21879033946883958
sg23
F3.0
sg24
F0.0
sg25
F0.056818181818181816
sg26
F221003.0
sg27
F319941.0
sg28
F0.0
ssS'YEAGER F SCOTT'
p358
(dp359
g3
F0.0
sg4
F0.0
sg5
F53947.0
sg6
I01
sg7
F0.0
sg8
S'scott.yeager@enron.com'
p360
sg10
F0.0
sg11
F0.0
sg12
F0.0
sg13
F0.0
sg14
F0.0
sg15
F0.0
sg16
F147950.0
sg17
F0.0
sg18
F0.0
sg19
F0.4396419650291424
sg20
F0.0
sg21
F11884758.0
sg22
F0.0
sg23
F0.0
sg24
F3576206.0
sg25
F0.0
sg26
F158403.0
sg27
F360300.0
sg28
F8308552.0
ssS'HIRKO JOSEPH'
p361
(dp362
g3
F0.0
sg4
F10259.0
sg5
F77978.0
sg6
I01
sg7
F0.0
sg8
S'joe.hirko@enron.com'
p363
sg10
F0.0
sg11
F0.0
sg12
F0.0
sg13
F0.0
sg14
F0.0
sg15
F0.0
sg16
F2856.0
sg17
F0.0
sg18
F0.0
sg19
F0.0
sg20
F0.0
sg21
F30766064.0
sg22
F0.0
sg23
F0.0
sg24
F0.0
sg25
F0.0
sg26
F0.0
sg27
F91093.0
sg28
F30766064.0
ssS'DIETRICH JANET R'
p364
(dp365
g3
F2572.0
sg4
F0.0
sg5
F3475.0
sg6
I00
sg7
F556416.0
sg8
S'janet.dietrich@enron.com'
p366
sg10
F305.0
sg11
F0.0
sg12
F0.0
sg13
F1902.0
sg14
F0.0
sg15
F63.0
sg16
F473.0
sg17
F0.73950233281493
sg18
F0.0
sg19
F0.1773175352224516
sg20
F600000.0
sg21
F1865087.0
sg22
F0.4253919277627788
sg23
F14.0
sg24
F315068.0
sg25
F0.11858475894245724
sg26
F250100.0
sg27
F1410464.0
sg28
F1550019.0
ssS'DERRICK JR. JAMES V'
p367
(dp368
g3
F2181.0
sg4
F0.0
sg5
F51124.0
sg6
I00
sg7
F484000.0
sg8
S'james.derrick@enron.com'
p369
sg10
F64.0
sg11
F-1284000.0
sg12
F-1787380.0
sg13
F1401.0
sg14
F0.0
sg15
F909.0
sg16
F7482.0
sg17
F0.6423658872077029
sg18
F0.0
sg19
F0.8936333557781484
sg20
F800000.0
sg21
F8831913.0
sg22
F1.4519556935720106
sg23
F20.0
sg24
F1787380.0
sg25
F0.029344337459880788
sg26
F492375.0
sg27
F550981.0
sg28
F8831913.0
ssS'PAI LOU L'
p370
(dp371
g3
F0.0
sg4
F0.0
sg5
F32047.0
sg6
I00
sg7
F0.0
sg8
S'lou.pai@enron.com'
p372
sg10
F0.0
sg11
F0.0
sg12
F0.0
sg13
F0.0
sg14
F0.0
sg15
F0.0
sg16
F1829457.0
sg17
F0.0
sg18
F0.0
sg19
F0.08384466458324195
sg20
F1000000.0
sg21
F23817930.0
sg22
F0.3201656665224854
sg23
F0.0
sg24
F8453763.0
sg25
F0.0
sg26
F261879.0
sg27
F3123383.0
sg28
F15364167.0
ssS'BAY FRANKLIN R'
p373
(dp374
g3
F0.0
sg4
F260455.0
sg5
F129142.0
sg6
I00
sg7
F0.0
sg8
S'frank.bay@enron.com'
p375
sg10
F0.0
sg11
F-201641.0
sg12
F-82782.0
sg13
F0.0
sg14
F0.0
sg15
F0.0
sg16
F69.0
sg17
F0.0
sg18
F0.0
sg19
F0.2895640428369836
sg20
F400000.0
sg21
F63014.0
sg22
F0.48326921961686414
sg23
F0.0
sg24
F145796.0
sg25
F0.0
sg26
F239671.0
sg27
F827696.0
sg28
F0.0
ssS'MCCARTY DANNY J'
p376
(dp377
g3
F1433.0
sg4
F0.0
sg5
F0.0
sg6
I00
sg7
F0.0
sg8
S'danny.mccarty@enron.com'
p378
sg10
F25.0
sg11
F0.0
sg12
F0.0
sg13
F508.0
sg14
F0.0
sg15
F215.0
sg16
F0.0
sg17
F0.35450104675505933
sg18
F0.0
sg19
F0.0
sg20
F0.0
sg21
F758931.0
sg22
F0.0
sg23
F2.0
sg24
F94556.0
sg25
F0.017445917655268667
sg26
F0.0
sg27
F0.0
sg28
F664375.0
ssS'FUGH JOHN L'
p379
(dp380
g3
F0.0
sg4
F50591.0
sg5
F0.0
sg6
I00
sg7
F0.0
sg8
F0.0
sg10
F0.0
sg11
F0.0
sg12
F0.0
sg13
F0.0
sg14
F0.0
sg15
F0.0
sg16
F0.0
sg17
F0.0
sg18
F0.0
sg19
F0.0
sg20
F0.0
sg21
F176378.0
sg22
F0.0
sg23
F0.0
sg24
F0.0
sg25
F0.0
sg26
F0.0
sg27
F50591.0
sg28
F176378.0
ssS'FALLON JAMES B'
p381
(dp382
g3
F1755.0
sg4
F0.0
sg5
F95924.0
sg6
I00
sg7
F374347.0
sg8
S'jim.fallon@enron.com'
p383
sg10
F42.0
sg11
F0.0
sg12
F0.0
sg13
F1604.0
sg14
F0.0
sg15
F75.0
sg16
F401481.0
sg17
F0.913960113960114
sg18
F0.0
sg19
F0.08285087886321722
sg20
F2500000.0
sg21
F2332399.0
sg22
F0.6800241544579664
sg23
F37.0
sg24
F1392142.0
sg25
F0.023931623931623933
sg26
F304588.0
sg27
F3676340.0
sg28
F940257.0
ssS'KOENIG MARK E'
p384
(dp385
g3
F2374.0
sg4
F0.0
sg5
F127017.0
sg6
I01
sg7
F300000.0
sg8
S'mark.koenig@enron.com'
p386
sg10
F53.0
sg11
F0.0
sg12
F0.0
sg13
F2271.0
sg14
F0.0
sg15
F61.0
sg16
F150458.0
sg17
F0.9566133108677338
sg18
F0.0
sg19
F0.19525129124535962
sg20
F700000.0
sg21
F1920055.0
sg22
F0.44096682606567505
sg23
F15.0
sg24
F1248318.0
sg25
F0.02232518955349621
sg26
F309946.0
sg27
F1587421.0
sg28
F671737.0
ssS'SAVAGE FRANK'
p387
(dp388
g3
F0.0
sg4
F0.0
sg5
F0.0
sg6
I00
sg7
F0.0
sg8
F0.0
sg10
F0.0
sg11
F-121284.0
sg12
F0.0
sg13
F0.0
sg14
F0.0
sg15
F0.0
sg16
F0.0
sg17
F0.0
sg18
F125034.0
sg19
F0.0
sg20
F0.0
sg21
F0.0
sg22
F0.0
sg23
F0.0
sg24
F0.0
sg25
F0.0
sg26
F0.0
sg27
F3750.0
sg28
F0.0
ssS'IZZO LAWRENCE L'
p389
(dp390
g3
F496.0
sg4
F0.0
sg5
F28093.0
sg6
I00
sg7
F312500.0
sg8
S'larry.izzo@enron.com'
p391
sg10
F28.0
sg11
F0.0
sg12
F0.0
sg13
F437.0
sg14
F0.0
sg15
F19.0
sg16
F1553729.0
sg17
F0.8810483870967742
sg18
F0.0
sg19
F0.043076466107225916
sg20
F0.0
sg21
F5819980.0
sg22
F0.0
sg23
F5.0
sg24
F3654808.0
sg25
F0.056451612903225805
sg26
F85274.0
sg27
F1979596.0
sg28
F2165172.0
ssS'TILNEY ELIZABETH A'
p392
(dp393
g3
F460.0
sg4
F0.0
sg5
F0.0
sg6
I00
sg7
F275000.0
sg8
S'elizabeth.tilney@enron.com'
p394
sg10
F10.0
sg11
F-575000.0
sg12
F0.0
sg13
F379.0
sg14
F0.0
sg15
F19.0
sg16
F152055.0
sg17
F0.8239130434782609
sg18
F0.0
sg19
F0.6192847646303266
sg20
F300000.0
sg21
F1168042.0
sg22
F0.7511398547295521
sg23
F11.0
sg24
F576792.0
sg25
F0.021739130434782608
sg26
F247338.0
sg27
F399393.0
sg28
F591250.0
ssS'MARTIN AMANDA K'
p395
(dp396
g3
F1522.0
sg4
F85430.0
sg5
F8211.0
sg6
I00
sg7
F5145434.0
sg8
S'a..martin@enron.com'
p397
sg10
F8.0
sg11
F0.0
sg12
F0.0
sg13
F477.0
sg14
F0.0
sg15
F230.0
sg16
F2818454.0
sg17
F0.31340341655716164
sg18
F0.0
sg19
F0.04157087366076144
sg20
F0.0
sg21
F2070306.0
sg22
F0.0
sg23
F0.0
sg24
F0.0
sg25
F0.005256241787122208
sg26
F349487.0
sg27
F8407016.0
sg28
F2070306.0
ssS'BUY RICHARD B'
p398
(dp399
g3
F3523.0
sg4
F649584.0
sg5
F0.0
sg6
I00
sg7
F769862.0
sg8
S'rick.buy@enron.com'
p400
sg10
F156.0
sg11
F-694862.0
sg12
F0.0
sg13
F2333.0
sg14
F0.0
sg15
F1053.0
sg16
F400572.0
sg17
F0.6622196991200682
sg18
F0.0
sg19
F0.14031740856865596
sg20
F900000.0
sg21
F3444470.0
sg22
F0.38205171961479
sg23
F71.0
sg24
F901657.0
sg25
F0.04428044280442804
sg26
F330546.0
sg27
F2355702.0
sg28
F2542813.0
ssS'GRAMM WENDY L'
p401
(dp402
g3
F0.0
sg4
F0.0
sg5
F0.0
sg6
I00
sg7
F0.0
sg8
F0.0
sg10
F0.0
sg11
F0.0
sg12
F0.0
sg13
F0.0
sg14
F0.0
sg15
F0.0
sg16
F0.0
sg17
F0.0
sg18
F119292.0
sg19
F0.0
sg20
F0.0
sg21
F0.0
sg22
F0.0
sg23
F0.0
sg24
F0.0
sg25
F0.0
sg26
F0.0
sg27
F119292.0
sg28
F0.0
ssS'CAUSEY RICHARD A'
p403
(dp404
g3
F1892.0
sg4
F0.0
sg5
F30674.0
sg6
I01
sg7
F350000.0
sg8
S'richard.causey@enron.com'
p405
sg10
F58.0
sg11
F-235000.0
sg12
F0.0
sg13
F1585.0
sg14
F0.0
sg15
F49.0
sg16
F307895.0
sg17
F0.837737843551797
sg18
F0.0
sg19
F0.22217376460729532
sg20
F1000000.0
sg21
F2502063.0
sg22
F0.5351147660638778
sg23
F12.0
sg24
F2502063.0
sg25
F0.0306553911205074
sg26
F415189.0
sg27
F1868758.0
sg28
F0.0
ssS'TAYLOR MITCHELL S'
p406
(dp407
g3
F533.0
sg4
F227449.0
sg5
F0.0
sg6
I00
sg7
F0.0
sg8
S'mitchell.taylor@enron.com'
p408
sg10
F0.0
sg11
F0.0
sg12
F0.0
sg13
F300.0
sg14
F0.0
sg15
F29.0
sg16
F0.0
sg17
F0.5628517823639775
sg18
F0.0
sg19
F0.24272259607948654
sg20
F600000.0
sg21
F3745048.0
sg22
F0.5491171568910085
sg23
F0.0
sg24
F563798.0
sg25
F0.0
sg26
F265214.0
sg27
F1092663.0
sg28
F3181250.0
ssS'DONAHUE JR JEFFREY M'
p409
(dp410
g3
F865.0
sg4
F0.0
sg5
F96268.0
sg6
I00
sg7
F0.0
sg8
S'jeff.donahue@enron.com'
p411
sg10
F188.0
sg11
F-300000.0
sg12
F0.0
sg13
F772.0
sg14
F0.0
sg15
F22.0
sg16
F891.0
sg17
F0.892485549132948
sg18
F0.0
sg19
F0.3181248287201973
sg20
F800000.0
sg21
F1080988.0
sg22
F0.9134922809902256
sg23
F11.0
sg24
F315068.0
sg25
F0.21734104046242775
sg26
F278601.0
sg27
F875760.0
sg28
F765920.0
ssS'GLISAN JR BEN F'
p412
(dp413
g3
F873.0
sg4
F0.0
sg5
F125978.0
sg6
I01
sg7
F71023.0
sg8
S'ben.glisan@enron.com'
p414
sg10
F52.0
sg11
F0.0
sg12
F0.0
sg13
F874.0
sg14
F0.0
sg15
F16.0
sg16
F200308.0
sg17
F1.0011454753722795
sg18
F0.0
sg19
F0.21612705968164342
sg20
F600000.0
sg21
F778546.0
sg22
F0.4715928204709012
sg23
F6.0
sg24
F393818.0
sg25
F0.05956471935853379
sg26
F274975.0
sg27
F1272284.0
sg28
F384728.0
ss.